; Function Attrs: mustprogress uwtable
define hidden void @_ZN10duckdb_re23RE2C2ERKNS_11StringPieceERKNS0_7OptionsE(ptr noundef nonnull align 8 dereferenceable(148) initializes((8, 31)) %0, ptr noundef nonnull readonly align 8 captures(none) dereferenceable(16) %1, ptr noundef nonnull readonly align 8 captures(none) dereferenceable(23) %2) unnamed_addr #2 align 2 personality ptr @__gxx_personality_v0 {
  %4 = getelementptr inbounds nuw i8, ptr %0, i64 8
  store i64 8388608, ptr %4, align 8, !tbaa !7
  %5 = getelementptr inbounds nuw i8, ptr %0, i64 16
  store i32 1, ptr %5, align 8, !tbaa !12
  %6 = getelementptr inbounds nuw i8, ptr %0, i64 20
  store i8 0, ptr %6, align 4, !tbaa !13
  %7 = getelementptr inbounds nuw i8, ptr %0, i64 21
  store i8 0, ptr %7, align 1, !tbaa !14
  %8 = getelementptr inbounds nuw i8, ptr %0, i64 22
  store i8 1, ptr %8, align 2, !tbaa !15
  %9 = getelementptr inbounds nuw i8, ptr %0, i64 23
  %10 = getelementptr inbounds nuw i8, ptr %0, i64 27
  store i32 0, ptr %9, align 1
  store i8 1, ptr %10, align 1, !tbaa !16
  %11 = getelementptr inbounds nuw i8, ptr %0, i64 28
  store i8 0, ptr %11, align 4, !tbaa !17
  %12 = getelementptr inbounds nuw i8, ptr %0, i64 29
  store i8 0, ptr %12, align 1, !tbaa !18
  %13 = getelementptr inbounds nuw i8, ptr %0, i64 30
  store i8 0, ptr %13, align 2, !tbaa !19
  %14 = getelementptr inbounds nuw i8, ptr %0, i64 72
  %15 = getelementptr inbounds nuw i8, ptr %0, i64 88
  store ptr %15, ptr %14, align 8, !tbaa !20
  %16 = getelementptr inbounds nuw i8, ptr %0, i64 80
  store i64 0, ptr %16, align 8, !tbaa !24
  store i8 0, ptr %15, align 8, !tbaa !26
  %17 = getelementptr inbounds nuw i8, ptr %0, i64 136
  store i32 0, ptr %17, align 8, !tbaa !27
  %18 = getelementptr inbounds nuw i8, ptr %0, i64 140
  store i32 0, ptr %18, align 4, !tbaa !27
  %19 = getelementptr inbounds nuw i8, ptr %0, i64 144
  store i32 0, ptr %19, align 8, !tbaa !27
  invoke void @_ZN10duckdb_re23RE24InitERKNS_11StringPieceERKNS0_7OptionsE(ptr noundef nonnull align 8 dereferenceable(148) %0, ptr noundef nonnull align 8 dereferenceable(16) %1, ptr noundef nonnull align 8 dereferenceable(23) %2)
          to label %20 unwind label %21

20:                                               ; preds = %3
  ret void

21:                                               ; preds = %3
  %22 = landingpad { ptr, i32 }
          cleanup
  %23 = load ptr, ptr %14, align 8, !tbaa !32
  %24 = icmp eq ptr %23, %15
  br i1 %24, label %_ZNKSt7__cxx1112basic_stringIcSt11char_traitsIcESaIcEE11_M_is_localEv.exit.thread.i.i, label %_ZNKSt7__cxx1112basic_stringIcSt11char_traitsIcESaIcEE11_M_is_localEv.exit.i.i

_ZNKSt7__cxx1112basic_stringIcSt11char_traitsIcESaIcEE11_M_is_localEv.exit.thread.i.i: ; preds = %21
  %25 = load i64, ptr %16, align 8, !tbaa !24
  %26 = icmp ult i64 %25, 16
  tail call void @llvm.assume(i1 %26)
  br label %_ZNSt7__cxx1112basic_stringIcSt11char_traitsIcESaIcEED2Ev.exit

_ZNKSt7__cxx1112basic_stringIcSt11char_traitsIcESaIcEE11_M_is_localEv.exit.i.i: ; preds = %21
  tail call void @_ZdlPv(ptr noundef %23) #33
  br label %_ZNSt7__cxx1112basic_stringIcSt11char_traitsIcESaIcEED2Ev.exit

_ZNSt7__cxx1112basic_stringIcSt11char_traitsIcESaIcEED2Ev.exit: ; preds = %_ZNKSt7__cxx1112basic_stringIcSt11char_traitsIcESaIcEE11_M_is_localEv.exit.thread.i.i, %_ZNKSt7__cxx1112basic_stringIcSt11char_traitsIcESaIcEE11_M_is_localEv.exit.i.i
  resume { ptr, i32 } %22
}